; Function Attrs: nofree norecurse nosync nounwind memory(read, argmem: readwrite, inaccessiblemem: none) uwtable
define i32 @stbtt__cff_int(ptr noundef captures(none) %0) local_unnamed_addr #3 {
  %2 = getelementptr inbounds nuw i8, ptr %0, i64 8
  %3 = load i32, ptr %2, align 8, !tbaa !3
  %4 = getelementptr inbounds nuw i8, ptr %0, i64 12
  %5 = load i32, ptr %4, align 4, !tbaa !10
  %.not.i = icmp slt i32 %3, %5
  br i1 %.not.i, label %stbtt__buf_get8.exit, label %stbtt__buf_get.exit

stbtt__buf_get8.exit:                             ; preds = %1
  %6 = load ptr, ptr %0, align 8, !tbaa !11
  %7 = add nsw i32 %3, 1
  store i32 %7, ptr %2, align 8, !tbaa !3
  %8 = sext i32 %3 to i64
  %9 = getelementptr inbounds i8, ptr %6, i64 %8
  %10 = load i8, ptr %9, align 1, !tbaa !12
  %11 = zext i8 %10 to i32
  %12 = add i8 %10, -32
  %or.cond = icmp ult i8 %12, -41
  br i1 %or.cond, label %13, label %15

13:                                               ; preds = %stbtt__buf_get8.exit
  %14 = add nsw i32 %11, -139
  br label %stbtt__buf_get.exit

15:                                               ; preds = %stbtt__buf_get8.exit
  %16 = add nsw i8 %10, 9
  %or.cond3 = icmp samesign ult i8 %16, 4
  br i1 %or.cond3, label %17, label %27

17:                                               ; preds = %15
  %18 = shl nuw nsw i32 %11, 8
  %.not.i22 = icmp slt i32 %7, %5
  br i1 %.not.i22, label %19, label %stbtt__buf_get8.exit24

19:                                               ; preds = %17
  %20 = add nsw i32 %3, 2
  store i32 %20, ptr %2, align 8, !tbaa !3
  %21 = sext i32 %7 to i64
  %22 = getelementptr inbounds i8, ptr %6, i64 %21
  %23 = load i8, ptr %22, align 1, !tbaa !12
  %24 = zext i8 %23 to i32
  br label %stbtt__buf_get8.exit24

stbtt__buf_get8.exit24:                           ; preds = %17, %19
  %.0.i23 = phi i32 [ %24, %19 ], [ 0, %17 ]
  %25 = add nsw i32 %18, -63124
  %26 = add nuw nsw i32 %25, %.0.i23
  br label %stbtt__buf_get.exit

27:                                               ; preds = %15
  %28 = add nsw i8 %10, 5
  %or.cond5 = icmp samesign ult i8 %28, 4
  br i1 %or.cond5, label %29, label %39

29:                                               ; preds = %27
  %.not.i25 = icmp slt i32 %7, %5
  br i1 %.not.i25, label %30, label %stbtt__buf_get8.exit27

30:                                               ; preds = %29
  %31 = add nsw i32 %3, 2
  store i32 %31, ptr %2, align 8, !tbaa !3
  %32 = sext i32 %7 to i64
  %33 = getelementptr inbounds i8, ptr %6, i64 %32
  %34 = load i8, ptr %33, align 1, !tbaa !12
  %35 = zext i8 %34 to i32
  br label %stbtt__buf_get8.exit27

stbtt__buf_get8.exit27:                           ; preds = %29, %30
  %.0.i26 = phi i32 [ %35, %30 ], [ 0, %29 ]
  %36 = shl nuw nsw i32 %11, 8
  %37 = or disjoint i32 %36, %.0.i26
  %38 = sub nsw i32 64148, %37
  br label %stbtt__buf_get.exit

39:                                               ; preds = %27
  switch i8 %10, label %stbtt__buf_get.exit [
    i8 28, label %.preheader
    i8 29, label %.preheader56
  ]

.preheader:                                       ; preds = %39, %stbtt__buf_get8.exit.i
  %40 = phi i32 [ %48, %stbtt__buf_get8.exit.i ], [ %7, %39 ]
  %.07.i = phi i32 [ %50, %stbtt__buf_get8.exit.i ], [ 0, %39 ]
  %.056.i = phi i32 [ %49, %stbtt__buf_get8.exit.i ], [ 0, %39 ]
  %41 = shl i32 %.056.i, 8
  %.not.i.i = icmp slt i32 %40, %5
  br i1 %.not.i.i, label %42, label %stbtt__buf_get8.exit.i

42:                                               ; preds = %.preheader
  %43 = add nsw i32 %40, 1
  store i32 %43, ptr %2, align 8, !tbaa !3
  %44 = sext i32 %40 to i64
  %45 = getelementptr inbounds i8, ptr %6, i64 %44
  %46 = load i8, ptr %45, align 1, !tbaa !12
  %47 = zext i8 %46 to i32
  br label %stbtt__buf_get8.exit.i

stbtt__buf_get8.exit.i:                           ; preds = %42, %.preheader
  %48 = phi i32 [ %43, %42 ], [ %40, %.preheader ]
  %.0.i.i = phi i32 [ %47, %42 ], [ 0, %.preheader ]
  %49 = or disjoint i32 %.0.i.i, %41
  %50 = add nuw nsw i32 %.07.i, 1
  %exitcond.not.i = icmp eq i32 %50, 2
  br i1 %exitcond.not.i, label %stbtt__buf_get.exit, label %.preheader, !llvm.loop !13

.preheader56:                                     ; preds = %39, %stbtt__buf_get8.exit.i32
  %51 = phi i32 [ %59, %stbtt__buf_get8.exit.i32 ], [ %7, %39 ]
  %.07.i29 = phi i32 [ %61, %stbtt__buf_get8.exit.i32 ], [ 0, %39 ]
  %.056.i30 = phi i32 [ %60, %stbtt__buf_get8.exit.i32 ], [ 0, %39 ]
  %52 = shl i32 %.056.i30, 8
  %.not.i.i31 = icmp slt i32 %51, %5
  br i1 %.not.i.i31, label %53, label %stbtt__buf_get8.exit.i32

53:                                               ; preds = %.preheader56
  %54 = add nsw i32 %51, 1
  store i32 %54, ptr %2, align 8, !tbaa !3
  %55 = sext i32 %51 to i64
  %56 = getelementptr inbounds i8, ptr %6, i64 %55
  %57 = load i8, ptr %56, align 1, !tbaa !12
  %58 = zext i8 %57 to i32
  br label %stbtt__buf_get8.exit.i32

stbtt__buf_get8.exit.i32:                         ; preds = %53, %.preheader56
  %59 = phi i32 [ %54, %53 ], [ %51, %.preheader56 ]
  %.0.i.i33 = phi i32 [ %58, %53 ], [ 0, %.preheader56 ]
  %60 = or disjoint i32 %.0.i.i33, %52
  %61 = add nuw nsw i32 %.07.i29, 1
  %exitcond.not.i34 = icmp eq i32 %61, 4
  br i1 %exitcond.not.i34, label %stbtt__buf_get.exit, label %.preheader56, !llvm.loop !13

stbtt__buf_get.exit:                              ; preds = %stbtt__buf_get8.exit.i32, %stbtt__buf_get8.exit.i, %1, %39, %stbtt__buf_get8.exit27, %stbtt__buf_get8.exit24, %13
  %.0 = phi i32 [ %14, %13 ], [ %26, %stbtt__buf_get8.exit24 ], [ %38, %stbtt__buf_get8.exit27 ], [ 0, %39 ], [ 0, %1 ], [ %49, %stbtt__buf_get8.exit.i ], [ %60, %stbtt__buf_get8.exit.i32 ]
  ret i32 %.0
}